; Function Attrs: nounwind uwtable
define dso_local void @defragScanCallback(ptr noundef readonly captures(none) %0, ptr noundef %1) #0 {
  %3 = load i64, ptr getelementptr inbounds nuw (i8, ptr @server, i64 2584), align 8, !tbaa !38
  tail call void @defragKey(ptr noundef %0, ptr noundef %1)
  %4 = load i64, ptr getelementptr inbounds nuw (i8, ptr @server, i64 2584), align 8, !tbaa !38
  %.not = icmp eq i64 %4, %3
  br i1 %.not, label %8, label %5

5:                                                ; preds = %2
  %6 = load i64, ptr getelementptr inbounds nuw (i8, ptr @server, i64 2600), align 8, !tbaa !142
  %7 = add nsw i64 %6, 1
  store i64 %7, ptr getelementptr inbounds nuw (i8, ptr @server, i64 2600), align 8, !tbaa !142
  br label %11

8:                                                ; preds = %2
  %9 = load i64, ptr getelementptr inbounds nuw (i8, ptr @server, i64 2608), align 8, !tbaa !143
  %10 = add nsw i64 %9, 1
  store i64 %10, ptr getelementptr inbounds nuw (i8, ptr @server, i64 2608), align 8, !tbaa !143
  br label %11

11:                                               ; preds = %8, %5
  %12 = load i64, ptr getelementptr inbounds nuw (i8, ptr @server, i64 2616), align 8, !tbaa !95
  %13 = add nsw i64 %12, 1
  store i64 %13, ptr getelementptr inbounds nuw (i8, ptr @server, i64 2616), align 8, !tbaa !95
  ret void
}